target datalayout = "e-m:e-p270:32:32-p271:32:32-p272:64:64-i64:64-i128:128-f80:128-n8:16:32:64-S128"
target triple = "x86_64-pc-linux-gnu"

%struct.paramType = type { i32, ptr, ptr, i32 }
%struct.futureTricks = type { i32, i32, [13 x i32], [13 x i32], [13 x i32], [13 x i32] }
%struct.deal = type { i32, i32, [3 x i32], [3 x i32], [4 x [4 x i32]] }
%struct.boards = type { i32, [200 x %struct.deal], [200 x i32], [200 x i32], [200 x i32] }
%struct.solvedBoards = type { i32, [200 x %struct.futureTricks] }

@param = global %struct.paramType zeroinitializer, align 8

; Function Attrs: mustprogress uwtable
define void @_Z17SolveSingleCommonii(i32 noundef %0, i32 noundef %1) #4 {
  %3 = alloca i32, align 4
  %4 = alloca i32, align 4
  %5 = alloca %struct.futureTricks, align 4
  %6 = alloca i32, align 4
  %7 = alloca %struct.deal, align 8
  store i32 %0, ptr %3, align 4
  store i32 %1, ptr %4, align 4
  %8 = load ptr, ptr getelementptr inbounds nuw (%struct.paramType, ptr @param, i32 0, i32 1), align 8
  %9 = getelementptr inbounds nuw %struct.boards, ptr %8, i32 0, i32 1
  %10 = load i32, ptr %4, align 4
  %11 = sext i32 %10 to i64
  %12 = getelementptr inbounds [200 x %struct.deal], ptr %9, i64 0, i64 %11
  call void @llvm.memcpy.p0.p0.i64(ptr align 4 %7, ptr align 4 %12, i64 96, i1 false)
  %13 = load ptr, ptr getelementptr inbounds nuw (%struct.paramType, ptr @param, i32 0, i32 1), align 8
  %14 = getelementptr inbounds nuw %struct.boards, ptr %13, i32 0, i32 2
  %15 = load i32, ptr %4, align 4
  %16 = sext i32 %15 to i64
  %17 = getelementptr inbounds [200 x i32], ptr %14, i64 0, i64 %16
  %18 = load i32, ptr %17, align 4
  %19 = load ptr, ptr getelementptr inbounds nuw (%struct.paramType, ptr @param, i32 0, i32 1), align 8
  %20 = getelementptr inbounds nuw %struct.boards, ptr %19, i32 0, i32 3
  %21 = load i32, ptr %4, align 4
  %22 = sext i32 %21 to i64
  %23 = getelementptr inbounds [200 x i32], ptr %20, i64 0, i64 %22
  %24 = load i32, ptr %23, align 4
  %25 = load ptr, ptr getelementptr inbounds nuw (%struct.paramType, ptr @param, i32 0, i32 1), align 8
  %26 = getelementptr inbounds nuw %struct.boards, ptr %25, i32 0, i32 4
  %27 = load i32, ptr %4, align 4
  %28 = sext i32 %27 to i64
  %29 = getelementptr inbounds [200 x i32], ptr %26, i64 0, i64 %28
  %30 = load i32, ptr %29, align 4
  %31 = load i32, ptr %3, align 4
  %32 = call i32 @SolveBoard(ptr noundef byval(%struct.deal) align 8 %7, i32 noundef %18, i32 noundef %24, i32 noundef %30, ptr noundef %5, i32 noundef %31)
  store i32 %32, ptr %6, align 4
  %33 = load i32, ptr %6, align 4
  %34 = icmp eq i32 %33, 1
  br i1 %34, label %35, label %41

35:                                               ; preds = %2
  %36 = load ptr, ptr getelementptr inbounds nuw (%struct.paramType, ptr @param, i32 0, i32 2), align 8
  %37 = getelementptr inbounds nuw %struct.solvedBoards, ptr %36, i32 0, i32 1
  %38 = load i32, ptr %4, align 4
  %39 = sext i32 %38 to i64
  %40 = getelementptr inbounds [200 x %struct.futureTricks], ptr %37, i64 0, i64 %39
  call void @llvm.memcpy.p0.p0.i64(ptr align 4 %40, ptr align 4 %5, i64 216, i1 false)
  br label %43

41:                                               ; preds = %2
  %42 = load i32, ptr %6, align 4
  store i32 %42, ptr getelementptr inbounds nuw (%struct.paramType, ptr @param, i32 0, i32 3), align 8
  br label %43

43:                                               ; preds = %41, %35
  ret void
}