; Function Attrs: mustprogress uwtable
define void @_Z17SolveSingleCommonii(i32 noundef %0, i32 noundef %1) local_unnamed_addr #3 {
  %3 = alloca %struct.futureTricks, align 4
  %4 = alloca %struct.deal, align 8
  %5 = load ptr, ptr getelementptr inbounds nuw (i8, ptr @param, i64 8), align 8
  %6 = getelementptr inbounds nuw i8, ptr %5, i64 4
  %7 = sext i32 %1 to i64
  %8 = getelementptr inbounds [200 x %struct.deal], ptr %6, i64 0, i64 %7
  call void @llvm.memcpy.p0.p0.i64(ptr noundef nonnull align 8 dereferenceable(96) %4, ptr noundef nonnull align 4 dereferenceable(96) %8, i64 96, i1 false)
  %9 = getelementptr inbounds nuw i8, ptr %5, i64 19204
  %10 = getelementptr inbounds [200 x i32], ptr %9, i64 0, i64 %7
  %11 = load i32, ptr %10, align 4
  %12 = getelementptr inbounds nuw i8, ptr %5, i64 20004
  %13 = getelementptr inbounds [200 x i32], ptr %12, i64 0, i64 %7
  %14 = load i32, ptr %13, align 4
  %15 = getelementptr inbounds nuw i8, ptr %5, i64 20804
  %16 = getelementptr inbounds [200 x i32], ptr %15, i64 0, i64 %7
  %17 = load i32, ptr %16, align 4
  %18 = call i32 @SolveBoard(ptr noundef nonnull byval(%struct.deal) align 8 %4, i32 noundef %11, i32 noundef %14, i32 noundef %17, ptr noundef nonnull %3, i32 noundef %0)
  %19 = icmp eq i32 %18, 1
  br i1 %19, label %20, label %24

20:                                               ; preds = %2
  %21 = load ptr, ptr getelementptr inbounds nuw (i8, ptr @param, i64 16), align 8
  %22 = getelementptr inbounds nuw i8, ptr %21, i64 4
  %23 = getelementptr inbounds [200 x %struct.futureTricks], ptr %22, i64 0, i64 %7
  call void @llvm.memcpy.p0.p0.i64(ptr noundef nonnull align 4 dereferenceable(216) %23, ptr noundef nonnull align 4 dereferenceable(216) %3, i64 216, i1 false)
  br label %25

24:                                               ; preds = %2
  store i32 %18, ptr getelementptr inbounds nuw (i8, ptr @param, i64 24), align 8
  br label %25

25:                                               ; preds = %24, %20
  ret void
}